target datalayout = "e-m:e-p270:32:32-p271:32:32-p272:64:64-i64:64-i128:128-f80:128-n8:16:32:64-S128"
target triple = "x86_64-unknown-linux-gnu"

%struct.ResourceData = type { ptr, ptr, ptr, ptr, i32, i32, ptr, i32, i32, i8, i8, i8, i8 }
%"class.icu_75::ResourceDataValue" = type <{ %"class.icu_75::ResourceValue", ptr, ptr, i32, %"class.icu_75::ResourceTracer", [3 x i8] }>
%"class.icu_75::ResourceValue" = type { %"class.icu_75::UObject" }
%"class.icu_75::UObject" = type { ptr }
%"class.icu_75::ResourceTracer" = type { i8 }
%"class.icu_75::ResourceTable" = type <{ ptr, ptr, ptr, ptr, i32, %"class.icu_75::ResourceTracer", [3 x i8] }>

; Function Attrs: mustprogress nounwind uwtable
define linkonce_odr void @_ZN6icu_7514ResourceTracerC2Ev(ptr noundef nonnull align 1 dereferenceable(1) %this) unnamed_addr #2 comdat align 2 {
entry:
  %this.addr = alloca ptr, align 8
  store ptr %this, ptr %this.addr, align 8
  ret void
}

; Function Attrs: mustprogress nounwind uwtable
define linkonce_odr void @_ZN6icu_7513ResourceTableC2EPKtPKiS2_PKjiRKNS_14ResourceTracerE(ptr noundef nonnull align 8 dereferenceable(37) %this, ptr noundef %k16, ptr noundef %k32, ptr noundef %i16, ptr noundef %i32, i32 noundef %len, ptr noundef nonnull align 1 dereferenceable(1) %traceInfo) unnamed_addr #2 comdat align 2 {
entry:
  %this.addr = alloca ptr, align 8
  %k16.addr = alloca ptr, align 8
  %k32.addr = alloca ptr, align 8
  %i16.addr = alloca ptr, align 8
  %i32.addr = alloca ptr, align 8
  %len.addr = alloca i32, align 4
  %traceInfo.addr = alloca ptr, align 8
  store ptr %this, ptr %this.addr, align 8
  store ptr %k16, ptr %k16.addr, align 8
  store ptr %k32, ptr %k32.addr, align 8
  store ptr %i16, ptr %i16.addr, align 8
  store ptr %i32, ptr %i32.addr, align 8
  store i32 %len, ptr %len.addr, align 4
  store ptr %traceInfo, ptr %traceInfo.addr, align 8
  %this1 = load ptr, ptr %this.addr, align 8
  %keys16 = getelementptr inbounds %"class.icu_75::ResourceTable", ptr %this1, i32 0, i32 0
  %0 = load ptr, ptr %k16.addr, align 8
  store ptr %0, ptr %keys16, align 8
  %keys32 = getelementptr inbounds %"class.icu_75::ResourceTable", ptr %this1, i32 0, i32 1
  %1 = load ptr, ptr %k32.addr, align 8
  store ptr %1, ptr %keys32, align 8
  %items16 = getelementptr inbounds %"class.icu_75::ResourceTable", ptr %this1, i32 0, i32 2
  %2 = load ptr, ptr %i16.addr, align 8
  store ptr %2, ptr %items16, align 8
  %items32 = getelementptr inbounds %"class.icu_75::ResourceTable", ptr %this1, i32 0, i32 3
  %3 = load ptr, ptr %i32.addr, align 8
  store ptr %3, ptr %items32, align 8
  %length = getelementptr inbounds %"class.icu_75::ResourceTable", ptr %this1, i32 0, i32 4
  %4 = load i32, ptr %len.addr, align 4
  store i32 %4, ptr %length, align 8
  ret void
}

; Function Attrs: mustprogress nounwind uwtable
define linkonce_odr noundef nonnull align 8 dereferenceable(64) ptr @_ZNK6icu_7517ResourceDataValue7getDataEv(ptr noundef nonnull align 8 dereferenceable(29) %this) #2 comdat align 2 {
entry:
  %this.addr = alloca ptr, align 8
  store ptr %this, ptr %this.addr, align 8
  %this1 = load ptr, ptr %this.addr, align 8
  %pResData = getelementptr inbounds %"class.icu_75::ResourceDataValue", ptr %this1, i32 0, i32 1
  %0 = load ptr, ptr %pResData, align 8
  ret ptr %0
}

; Function Attrs: mustprogress uwtable
define linkonce_odr void @_ZN6icu_7513ResourceTableC2Ev(ptr noundef nonnull align 8 dereferenceable(37) %this) unnamed_addr #0 comdat align 2 {
entry:
  %this.addr = alloca ptr, align 8
  store ptr %this, ptr %this.addr, align 8
  %this1 = load ptr, ptr %this.addr, align 8
  %keys16 = getelementptr inbounds %"class.icu_75::ResourceTable", ptr %this1, i32 0, i32 0
  store ptr null, ptr %keys16, align 8
  %keys32 = getelementptr inbounds %"class.icu_75::ResourceTable", ptr %this1, i32 0, i32 1
  store ptr null, ptr %keys32, align 8
  %items16 = getelementptr inbounds %"class.icu_75::ResourceTable", ptr %this1, i32 0, i32 2
  store ptr null, ptr %items16, align 8
  %items32 = getelementptr inbounds %"class.icu_75::ResourceTable", ptr %this1, i32 0, i32 3
  store ptr null, ptr %items32, align 8
  %length = getelementptr inbounds %"class.icu_75::ResourceTable", ptr %this1, i32 0, i32 4
  store i32 0, ptr %length, align 8
  %fTraceInfo = getelementptr inbounds %"class.icu_75::ResourceTable", ptr %this1, i32 0, i32 5
  call void @_ZN6icu_7514ResourceTracerC2Ev(ptr noundef nonnull align 1 dereferenceable(1) %fTraceInfo)
  ret void
}

; Function Attrs: mustprogress nounwind uwtable
define internal noundef signext i8 @_ZL9U_FAILURE10UErrorCode(i32 noundef %code) #2 {
entry:
  %code.addr = alloca i32, align 4
  store i32 %code, ptr %code.addr, align 4
  %0 = load i32, ptr %code.addr, align 4
  %cmp = icmp sgt i32 %0, 0
  %conv = zext i1 %cmp to i8
  ret i8 %conv
}

; Function Attrs: mustprogress uwtable
define void @_ZNK6icu_7517ResourceDataValue8getTableER10UErrorCode(ptr noalias sret(%"class.icu_75::ResourceTable") align 8 %agg.result, ptr noundef nonnull align 8 dereferenceable(29) %this, ptr noundef nonnull align 4 dereferenceable(4) %errorCode) unnamed_addr #0 align 2 {
entry:
  %this.addr = alloca ptr, align 8
  %errorCode.addr = alloca ptr, align 8
  %keys16 = alloca ptr, align 8
  %keys32 = alloca ptr, align 8
  %items16 = alloca ptr, align 8
  %items32 = alloca ptr, align 8
  %offset = alloca i32, align 4
  %length = alloca i32, align 4
  store ptr %this, ptr %this.addr, align 8
  store ptr %errorCode, ptr %errorCode.addr, align 8
  %this1 = load ptr, ptr %this.addr, align 8
  %0 = load ptr, ptr %errorCode.addr, align 8
  %1 = load i32, ptr %0, align 4
  %call = call noundef signext i8 @_ZL9U_FAILURE10UErrorCode(i32 noundef %1)
  %tobool = icmp ne i8 %call, 0
  br i1 %tobool, label %if.then, label %if.end

if.then:                                          ; preds = %entry
  call void @_ZN6icu_7513ResourceTableC2Ev(ptr noundef nonnull align 8 dereferenceable(37) %agg.result)
  br label %return

if.end:                                           ; preds = %entry
  store ptr null, ptr %keys16, align 8
  store ptr null, ptr %keys32, align 8
  store ptr null, ptr %items16, align 8
  store ptr null, ptr %items32, align 8
  %res = getelementptr inbounds %"class.icu_75::ResourceDataValue", ptr %this1, i32 0, i32 3
  %2 = load i32, ptr %res, align 8
  %and = and i32 %2, 268435455
  store i32 %and, ptr %offset, align 4
  store i32 0, ptr %length, align 4
  %res2 = getelementptr inbounds %"class.icu_75::ResourceDataValue", ptr %this1, i32 0, i32 3
  %3 = load i32, ptr %res2, align 8
  %shr = lshr i32 %3, 28
  switch i32 %shr, label %sw.default [
    i32 2, label %sw.bb
    i32 5, label %sw.bb11
    i32 4, label %sw.bb19
  ]

sw.bb:                                            ; preds = %if.end
  %4 = load i32, ptr %offset, align 4
  %cmp = icmp ne i32 %4, 0
  br i1 %cmp, label %if.then3, label %if.end10

if.then3:                                         ; preds = %sw.bb
  %call4 = call noundef nonnull align 8 dereferenceable(64) ptr @_ZNK6icu_7517ResourceDataValue7getDataEv(ptr noundef nonnull align 8 dereferenceable(29) %this1)
  %pRoot = getelementptr inbounds %struct.ResourceData, ptr %call4, i32 0, i32 1
  %5 = load ptr, ptr %pRoot, align 8
  %6 = load i32, ptr %offset, align 4
  %idx.ext = zext i32 %6 to i64
  %add.ptr = getelementptr inbounds i32, ptr %5, i64 %idx.ext
  store ptr %add.ptr, ptr %keys16, align 8
  %7 = load ptr, ptr %keys16, align 8
  %incdec.ptr = getelementptr inbounds i16, ptr %7, i32 1
  store ptr %incdec.ptr, ptr %keys16, align 8
  %8 = load i16, ptr %7, align 2
  %conv = zext i16 %8 to i32
  store i32 %conv, ptr %length, align 4
  %9 = load ptr, ptr %keys16, align 8
  %10 = load i32, ptr %length, align 4
  %idx.ext5 = sext i32 %10 to i64
  %add.ptr6 = getelementptr inbounds i16, ptr %9, i64 %idx.ext5
  %11 = load i32, ptr %length, align 4
  %not = xor i32 %11, -1
  %and7 = and i32 %not, 1
  %idx.ext8 = sext i32 %and7 to i64
  %add.ptr9 = getelementptr inbounds i16, ptr %add.ptr6, i64 %idx.ext8
  store ptr %add.ptr9, ptr %items32, align 8
  br label %if.end10

if.end10:                                         ; preds = %if.then3, %sw.bb
  br label %sw.epilog

sw.bb11:                                          ; preds = %if.end
  %call12 = call noundef nonnull align 8 dereferenceable(64) ptr @_ZNK6icu_7517ResourceDataValue7getDataEv(ptr noundef nonnull align 8 dereferenceable(29) %this1)
  %p16BitUnits = getelementptr inbounds %struct.ResourceData, ptr %call12, i32 0, i32 2
  %12 = load ptr, ptr %p16BitUnits, align 8
  %13 = load i32, ptr %offset, align 4
  %idx.ext13 = zext i32 %13 to i64
  %add.ptr14 = getelementptr inbounds i16, ptr %12, i64 %idx.ext13
  store ptr %add.ptr14, ptr %keys16, align 8
  %14 = load ptr, ptr %keys16, align 8
  %incdec.ptr15 = getelementptr inbounds i16, ptr %14, i32 1
  store ptr %incdec.ptr15, ptr %keys16, align 8
  %15 = load i16, ptr %14, align 2
  %conv16 = zext i16 %15 to i32
  store i32 %conv16, ptr %length, align 4
  %16 = load ptr, ptr %keys16, align 8
  %17 = load i32, ptr %length, align 4
  %idx.ext17 = sext i32 %17 to i64
  %add.ptr18 = getelementptr inbounds i16, ptr %16, i64 %idx.ext17
  store ptr %add.ptr18, ptr %items16, align 8
  br label %sw.epilog

sw.bb19:                                          ; preds = %if.end
  %18 = load i32, ptr %offset, align 4
  %cmp20 = icmp ne i32 %18, 0
  br i1 %cmp20, label %if.then21, label %if.end29

if.then21:                                        ; preds = %sw.bb19
  %call22 = call noundef nonnull align 8 dereferenceable(64) ptr @_ZNK6icu_7517ResourceDataValue7getDataEv(ptr noundef nonnull align 8 dereferenceable(29) %this1)
  %pRoot23 = getelementptr inbounds %struct.ResourceData, ptr %call22, i32 0, i32 1
  %19 = load ptr, ptr %pRoot23, align 8
  %20 = load i32, ptr %offset, align 4
  %idx.ext24 = zext i32 %20 to i64
  %add.ptr25 = getelementptr inbounds i32, ptr %19, i64 %idx.ext24
  store ptr %add.ptr25, ptr %keys32, align 8
  %21 = load ptr, ptr %keys32, align 8
  %incdec.ptr26 = getelementptr inbounds i32, ptr %21, i32 1
  store ptr %incdec.ptr26, ptr %keys32, align 8
  %22 = load i32, ptr %21, align 4
  store i32 %22, ptr %length, align 4
  %23 = load ptr, ptr %keys32, align 8
  %24 = load i32, ptr %length, align 4
  %idx.ext27 = sext i32 %24 to i64
  %add.ptr28 = getelementptr inbounds i32, ptr %23, i64 %idx.ext27
  store ptr %add.ptr28, ptr %items32, align 8
  br label %if.end29

if.end29:                                         ; preds = %if.then21, %sw.bb19
  br label %sw.epilog

sw.default:                                       ; preds = %if.end
  %25 = load ptr, ptr %errorCode.addr, align 8
  store i32 17, ptr %25, align 4
  call void @_ZN6icu_7513ResourceTableC2Ev(ptr noundef nonnull align 8 dereferenceable(37) %agg.result)
  br label %return

sw.epilog:                                        ; preds = %if.end29, %sw.bb11, %if.end10
  %26 = load ptr, ptr %keys16, align 8
  %27 = load ptr, ptr %keys32, align 8
  %28 = load ptr, ptr %items16, align 8
  %29 = load ptr, ptr %items32, align 8
  %30 = load i32, ptr %length, align 4
  %fTraceInfo = getelementptr inbounds %"class.icu_75::ResourceDataValue", ptr %this1, i32 0, i32 4
  call void @_ZN6icu_7513ResourceTableC2EPKtPKiS2_PKjiRKNS_14ResourceTracerE(ptr noundef nonnull align 8 dereferenceable(37) %agg.result, ptr noundef %26, ptr noundef %27, ptr noundef %28, ptr noundef %29, i32 noundef %30, ptr noundef nonnull align 1 dereferenceable(1) %fTraceInfo)
  br label %return

return:                                           ; preds = %sw.epilog, %sw.default, %if.then
  ret void
}