; Function Attrs: mustprogress nofree norecurse nosync nounwind willreturn memory(read, argmem: readwrite, inaccessiblemem: none) uwtable
define void @_ZNK6icu_7517ResourceDataValue8getTableER10UErrorCode(ptr noalias nocapture writeonly sret(%"class.icu_75::ResourceTable") align 8 %agg.result, ptr nocapture noundef nonnull readonly align 8 dereferenceable(29) %this, ptr nocapture noundef nonnull align 4 dereferenceable(4) %errorCode) unnamed_addr #5 align 2 {
entry:
  %0 = load i32, ptr %errorCode, align 4
  %cmp.i = icmp slt i32 %0, 1
  br i1 %cmp.i, label %if.end, label %if.then

if.then:                                          ; preds = %entry
  tail call void @llvm.memset.p0.i64(ptr noundef nonnull align 8 dereferenceable(36) %agg.result, i8 0, i64 36, i1 false)
  br label %return

if.end:                                           ; preds = %entry
  %res = getelementptr inbounds i8, ptr %this, i64 24
  %1 = load i32, ptr %res, align 8
  %and = and i32 %1, 268435455
  %shr = lshr i32 %1, 28
  switch i32 %shr, label %sw.default [
    i32 2, label %sw.bb
    i32 5, label %sw.bb11
    i32 4, label %sw.bb19
  ]

sw.bb:                                            ; preds = %if.end
  %cmp.not = icmp eq i32 %and, 0
  br i1 %cmp.not, label %sw.epilog, label %if.then3

if.then3:                                         ; preds = %sw.bb
  %pResData.i = getelementptr inbounds i8, ptr %this, i64 8
  %2 = load ptr, ptr %pResData.i, align 8
  %pRoot = getelementptr inbounds i8, ptr %2, i64 8
  %3 = load ptr, ptr %pRoot, align 8
  %idx.ext = zext nneg i32 %and to i64
  %add.ptr = getelementptr inbounds i32, ptr %3, i64 %idx.ext
  %incdec.ptr = getelementptr inbounds i8, ptr %add.ptr, i64 2
  %4 = load i16, ptr %add.ptr, align 2
  %conv = zext i16 %4 to i32
  %idx.ext5 = zext i16 %4 to i64
  %add.ptr6 = getelementptr inbounds i16, ptr %incdec.ptr, i64 %idx.ext5
  %not = and i32 %conv, 1
  %and7 = xor i32 %not, 1
  %idx.ext8 = zext nneg i32 %and7 to i64
  %add.ptr9 = getelementptr inbounds i16, ptr %add.ptr6, i64 %idx.ext8
  br label %sw.epilog

sw.bb11:                                          ; preds = %if.end
  %pResData.i16 = getelementptr inbounds i8, ptr %this, i64 8
  %5 = load ptr, ptr %pResData.i16, align 8
  %p16BitUnits = getelementptr inbounds i8, ptr %5, i64 16
  %6 = load ptr, ptr %p16BitUnits, align 8
  %idx.ext13 = zext nneg i32 %and to i64
  %add.ptr14 = getelementptr inbounds i16, ptr %6, i64 %idx.ext13
  %incdec.ptr15 = getelementptr inbounds i8, ptr %add.ptr14, i64 2
  %7 = load i16, ptr %add.ptr14, align 2
  %conv16 = zext i16 %7 to i32
  %idx.ext17 = zext i16 %7 to i64
  %add.ptr18 = getelementptr inbounds i16, ptr %incdec.ptr15, i64 %idx.ext17
  br label %sw.epilog

sw.bb19:                                          ; preds = %if.end
  %cmp20.not = icmp eq i32 %and, 0
  br i1 %cmp20.not, label %sw.epilog, label %if.then21

if.then21:                                        ; preds = %sw.bb19
  %pResData.i17 = getelementptr inbounds i8, ptr %this, i64 8
  %8 = load ptr, ptr %pResData.i17, align 8
  %pRoot23 = getelementptr inbounds i8, ptr %8, i64 8
  %9 = load ptr, ptr %pRoot23, align 8
  %idx.ext24 = zext nneg i32 %and to i64
  %add.ptr25 = getelementptr inbounds i32, ptr %9, i64 %idx.ext24
  %incdec.ptr26 = getelementptr inbounds i8, ptr %add.ptr25, i64 4
  %10 = load i32, ptr %add.ptr25, align 4
  %idx.ext27 = sext i32 %10 to i64
  %add.ptr28 = getelementptr inbounds i32, ptr %incdec.ptr26, i64 %idx.ext27
  br label %sw.epilog

sw.default:                                       ; preds = %if.end
  store i32 17, ptr %errorCode, align 4
  tail call void @llvm.memset.p0.i64(ptr noundef nonnull align 8 dereferenceable(36) %agg.result, i8 0, i64 36, i1 false)
  br label %return

sw.epilog:                                        ; preds = %sw.bb19, %if.then21, %sw.bb, %if.then3, %sw.bb11
  %keys32.0 = phi ptr [ %incdec.ptr26, %if.then21 ], [ null, %sw.bb19 ], [ null, %sw.bb11 ], [ null, %if.then3 ], [ null, %sw.bb ]
  %items16.0 = phi ptr [ null, %if.then21 ], [ null, %sw.bb19 ], [ %add.ptr18, %sw.bb11 ], [ null, %if.then3 ], [ null, %sw.bb ]
  %items32.0 = phi ptr [ %add.ptr28, %if.then21 ], [ null, %sw.bb19 ], [ null, %sw.bb11 ], [ %add.ptr9, %if.then3 ], [ null, %sw.bb ]
  %keys16.0 = phi ptr [ null, %if.then21 ], [ null, %sw.bb19 ], [ %incdec.ptr15, %sw.bb11 ], [ %incdec.ptr, %if.then3 ], [ null, %sw.bb ]
  %length.0 = phi i32 [ %10, %if.then21 ], [ 0, %sw.bb19 ], [ %conv16, %sw.bb11 ], [ %conv, %if.then3 ], [ 0, %sw.bb ]
  store ptr %keys16.0, ptr %agg.result, align 8
  %keys32.i = getelementptr inbounds i8, ptr %agg.result, i64 8
  store ptr %keys32.0, ptr %keys32.i, align 8
  %items16.i = getelementptr inbounds i8, ptr %agg.result, i64 16
  store ptr %items16.0, ptr %items16.i, align 8
  %items32.i = getelementptr inbounds i8, ptr %agg.result, i64 24
  store ptr %items32.0, ptr %items32.i, align 8
  %length.i = getelementptr inbounds i8, ptr %agg.result, i64 32
  store i32 %length.0, ptr %length.i, align 8
  br label %return

return:                                           ; preds = %sw.epilog, %sw.default, %if.then
  ret void
}